target datalayout = "e-m:e-p270:32:32-p271:32:32-p272:64:64-i64:64-i128:128-f80:128-n8:16:32:64-S128"
target triple = "x86_64-pc-linux-gnu"

%union.av_intfloat32 = type { i32 }
%struct.AVCodecContext = type { ptr, i32, i32, ptr, i32, i32, ptr, ptr, ptr, i64, i32, i32, ptr, i32, %struct.AVRational, %struct.AVRational, %struct.AVRational, i32, i32, i32, i32, i32, %struct.AVRational, i32, i32, i32, i32, i32, i32, i32, i32, i32, i32, i32, ptr, ptr, i32, float, float, float, float, float, float, float, float, float, i32, i32, i32, i32, i32, i32, i32, i32, i32, i32, i32, i32, ptr, ptr, ptr, i32, i32, i32, i32, i32, i32, i32, i32, i32, i32, %struct.AVChannelLayout, i32, i32, i32, i32, i32, i32, i32, i32, ptr, i32, i32, i32, float, float, i32, i32, i32, i32, i32, ptr, i64, i64, float, float, i32, i32, ptr, ptr, i32, i32, i32, i32, i32, ptr, ptr, ptr, ptr, i32, i32, [8 x i64], i32, i32, i32, i32, i32, i32, i32, ptr, ptr, i32, i32, i32, i32, i32, i32, i32, i32, i32, i32, ptr, ptr, i32, i32, ptr, ptr, ptr, ptr, i32, i32, i64, i32, i32, i64, ptr, i64, ptr, i32, ptr, i32 }
%struct.AVRational = type { i32, i32 }
%struct.AVChannelLayout = type { i32, i32, %union.anon.1, ptr }
%union.anon.1 = type { i64 }
%struct.EXRContext = type { ptr, ptr, ptr, %struct.ExrDSPContext, i32, i32, [4 x i32], ptr, i32, i32, i32, i32, i32, i32, i32, i32, i32, i32, %struct.EXRTileAttribute, i32, i32, i32, i32, %struct.GetByteContext, ptr, i32, ptr, i32, i32, i32, ptr, ptr, i32, ptr, i32, float, [65536 x i16], %struct.Float2HalfTables, %struct.Half2FloatTables }
%struct.ExrDSPContext = type { ptr, ptr }
%struct.EXRTileAttribute = type { i32, i32, i32, i32 }
%struct.GetByteContext = type { ptr, ptr, ptr }
%struct.Float2HalfTables = type { [512 x i16], [512 x i8] }
%struct.Half2FloatTables = type { [3072 x i32], [64 x i32], [64 x i16] }

; Function Attrs: inlinehint nounwind uwtable
define internal zeroext i16 @float2half(i32 noundef %0, ptr noundef %1) #4 {
  %3 = alloca i32, align 4
  %4 = alloca ptr, align 8
  %5 = alloca i16, align 2
  store i32 %0, ptr %3, align 4, !tbaa !46
  store ptr %1, ptr %4, align 8, !tbaa !109
  call void @llvm.lifetime.start.p0(i64 2, ptr %5) #13
  %6 = load ptr, ptr %4, align 8, !tbaa !109
  %7 = getelementptr inbounds nuw %struct.Float2HalfTables, ptr %6, i32 0, i32 0
  %8 = load i32, ptr %3, align 4, !tbaa !46
  %9 = lshr i32 %8, 23
  %10 = and i32 %9, 511
  %11 = zext i32 %10 to i64
  %12 = getelementptr inbounds nuw [512 x i16], ptr %7, i64 0, i64 %11
  %13 = load i16, ptr %12, align 2, !tbaa !48
  %14 = zext i16 %13 to i32
  %15 = load i32, ptr %3, align 4, !tbaa !46
  %16 = and i32 %15, 8388607
  %17 = load ptr, ptr %4, align 8, !tbaa !109
  %18 = getelementptr inbounds nuw %struct.Float2HalfTables, ptr %17, i32 0, i32 1
  %19 = load i32, ptr %3, align 4, !tbaa !46
  %20 = lshr i32 %19, 23
  %21 = and i32 %20, 511
  %22 = zext i32 %21 to i64
  %23 = getelementptr inbounds nuw [512 x i8], ptr %18, i64 0, i64 %22
  %24 = load i8, ptr %23, align 1, !tbaa !47
  %25 = zext i8 %24 to i32
  %26 = lshr i32 %16, %25
  %27 = add i32 %14, %26
  %28 = trunc i32 %27 to i16
  store i16 %28, ptr %5, align 2, !tbaa !48
  %29 = load i16, ptr %5, align 2, !tbaa !48
  call void @llvm.lifetime.end.p0(i64 2, ptr %5) #13
  ret i16 %29
}

; Function Attrs: alwaysinline nounwind uwtable
define internal i32 @av_float2int(float noundef %0) #5 {
  %2 = alloca float, align 4
  %3 = alloca %union.av_intfloat32, align 4
  store float %0, ptr %2, align 4, !tbaa !42
  call void @llvm.lifetime.start.p0(i64 4, ptr %3) #13
  %4 = load float, ptr %2, align 4, !tbaa !42
  store float %4, ptr %3, align 4, !tbaa !47
  %5 = load i32, ptr %3, align 4, !tbaa !47
  call void @llvm.lifetime.end.p0(i64 4, ptr %3) #13
  ret i32 %5
}

; Function Attrs: inlinehint nounwind uwtable
define internal i32 @half2float(i16 noundef zeroext %0, ptr noundef %1) #4 {
  %3 = alloca i16, align 2
  %4 = alloca ptr, align 8
  %5 = alloca i32, align 4
  store i16 %0, ptr %3, align 2, !tbaa !48
  store ptr %1, ptr %4, align 8, !tbaa !107
  call void @llvm.lifetime.start.p0(i64 4, ptr %5) #13
  %6 = load ptr, ptr %4, align 8, !tbaa !107
  %7 = getelementptr inbounds nuw %struct.Half2FloatTables, ptr %6, i32 0, i32 0
  %8 = load ptr, ptr %4, align 8, !tbaa !107
  %9 = getelementptr inbounds nuw %struct.Half2FloatTables, ptr %8, i32 0, i32 2
  %10 = load i16, ptr %3, align 2, !tbaa !48
  %11 = zext i16 %10 to i32
  %12 = ashr i32 %11, 10
  %13 = sext i32 %12 to i64
  %14 = getelementptr inbounds [64 x i16], ptr %9, i64 0, i64 %13
  %15 = load i16, ptr %14, align 2, !tbaa !48
  %16 = zext i16 %15 to i32
  %17 = load i16, ptr %3, align 2, !tbaa !48
  %18 = zext i16 %17 to i32
  %19 = and i32 %18, 1023
  %20 = add nsw i32 %16, %19
  %21 = sext i32 %20 to i64
  %22 = getelementptr inbounds [3072 x i32], ptr %7, i64 0, i64 %21
  %23 = load i32, ptr %22, align 4, !tbaa !46
  %24 = load ptr, ptr %4, align 8, !tbaa !107
  %25 = getelementptr inbounds nuw %struct.Half2FloatTables, ptr %24, i32 0, i32 1
  %26 = load i16, ptr %3, align 2, !tbaa !48
  %27 = zext i16 %26 to i32
  %28 = ashr i32 %27, 10
  %29 = sext i32 %28 to i64
  %30 = getelementptr inbounds [64 x i32], ptr %25, i64 0, i64 %29
  %31 = load i32, ptr %30, align 4, !tbaa !46
  %32 = add i32 %23, %31
  store i32 %32, ptr %5, align 4, !tbaa !46
  %33 = load i32, ptr %5, align 4, !tbaa !46
  call void @llvm.lifetime.end.p0(i64 4, ptr %5) #13
  ret i32 %33
}

; Function Attrs: cold nounwind optsize uwtable
define internal i32 @decode_init(ptr noundef %0) #0 {
  %2 = alloca i32, align 4
  %3 = alloca ptr, align 8
  %4 = alloca ptr, align 8
  %5 = alloca i32, align 4
  %6 = alloca %union.av_intfloat32, align 4
  %7 = alloca float, align 4
  %8 = alloca ptr, align 8
  %9 = alloca i32, align 4
  store ptr %0, ptr %3, align 8, !tbaa !4
  call void @llvm.lifetime.start.p0(i64 8, ptr %4) #13
  %10 = load ptr, ptr %3, align 8, !tbaa !4
  %11 = getelementptr inbounds nuw %struct.AVCodecContext, ptr %10, i32 0, i32 6
  %12 = load ptr, ptr %11, align 8, !tbaa !9
  store ptr %12, ptr %4, align 8, !tbaa !29
  call void @llvm.lifetime.start.p0(i64 4, ptr %5) #13
  call void @llvm.lifetime.start.p0(i64 4, ptr %6) #13
  call void @llvm.lifetime.start.p0(i64 4, ptr %7) #13
  %13 = load ptr, ptr %4, align 8, !tbaa !29
  %14 = getelementptr inbounds nuw %struct.EXRContext, ptr %13, i32 0, i32 35
  %15 = load float, ptr %14, align 4, !tbaa !31
  %16 = fdiv nsz float 1.000000e+00, %15
  store float %16, ptr %7, align 4, !tbaa !42
  call void @llvm.lifetime.start.p0(i64 8, ptr %8) #13
  store ptr null, ptr %8, align 8, !tbaa !43
  %17 = load ptr, ptr %4, align 8, !tbaa !29
  %18 = getelementptr inbounds nuw %struct.EXRContext, ptr %17, i32 0, i32 37
  call void @ff_init_float2half_tables(ptr noundef %18)
  %19 = load ptr, ptr %4, align 8, !tbaa !29
  %20 = getelementptr inbounds nuw %struct.EXRContext, ptr %19, i32 0, i32 38
  call void @ff_init_half2float_tables(ptr noundef %20)
  %21 = load ptr, ptr %3, align 8, !tbaa !4
  %22 = load ptr, ptr %4, align 8, !tbaa !29
  %23 = getelementptr inbounds nuw %struct.EXRContext, ptr %22, i32 0, i32 2
  store ptr %21, ptr %23, align 8, !tbaa !44
  %24 = load ptr, ptr %4, align 8, !tbaa !29
  %25 = getelementptr inbounds nuw %struct.EXRContext, ptr %24, i32 0, i32 3
  call void @ff_exrdsp_init(ptr noundef %25)
  %26 = load ptr, ptr %4, align 8, !tbaa !29
  %27 = getelementptr inbounds nuw %struct.EXRContext, ptr %26, i32 0, i32 34
  %28 = load i32, ptr %27, align 8, !tbaa !45
  %29 = call ptr @av_csp_trc_func_from_id(i32 noundef %28)
  store ptr %29, ptr %8, align 8, !tbaa !43
  %30 = load ptr, ptr %8, align 8, !tbaa !43
  %31 = icmp ne ptr %30, null
  br i1 %31, label %32, label %61

32:                                               ; preds = %1
  store i32 0, ptr %5, align 4, !tbaa !46
  br label %33

33:                                               ; preds = %57, %32
  %34 = load i32, ptr %5, align 4, !tbaa !46
  %35 = icmp ult i32 %34, 65536
  br i1 %35, label %36, label %60

36:                                               ; preds = %33
  %37 = load i32, ptr %5, align 4, !tbaa !46
  %38 = trunc i32 %37 to i16
  %39 = load ptr, ptr %4, align 8, !tbaa !29
  %40 = getelementptr inbounds nuw %struct.EXRContext, ptr %39, i32 0, i32 38
  %41 = call i32 @half2float(i16 noundef zeroext %38, ptr noundef %40)
  store i32 %41, ptr %6, align 4, !tbaa !47
  %42 = load ptr, ptr %8, align 8, !tbaa !43
  %43 = load float, ptr %6, align 4, !tbaa !47
  %44 = fpext nsz float %43 to double
  %45 = call nsz double %42(double noundef %44)
  %46 = fptrunc nsz double %45 to float
  store float %46, ptr %6, align 4, !tbaa !47
  %47 = load float, ptr %6, align 4, !tbaa !47
  %48 = call i32 @av_float2int(float noundef %47)
  %49 = load ptr, ptr %4, align 8, !tbaa !29
  %50 = getelementptr inbounds nuw %struct.EXRContext, ptr %49, i32 0, i32 37
  %51 = call zeroext i16 @float2half(i32 noundef %48, ptr noundef %50)
  %52 = load ptr, ptr %4, align 8, !tbaa !29
  %53 = getelementptr inbounds nuw %struct.EXRContext, ptr %52, i32 0, i32 36
  %54 = load i32, ptr %5, align 4, !tbaa !46
  %55 = zext i32 %54 to i64
  %56 = getelementptr inbounds nuw [65536 x i16], ptr %53, i64 0, i64 %55
  store i16 %51, ptr %56, align 2, !tbaa !48
  br label %57

57:                                               ; preds = %36
  %58 = load i32, ptr %5, align 4, !tbaa !46
  %59 = add i32 %58, 1
  store i32 %59, ptr %5, align 4, !tbaa !46
  br label %33, !llvm.loop !50

60:                                               ; preds = %33
  br label %103

61:                                               ; preds = %1
  %62 = load float, ptr %7, align 4, !tbaa !42
  %63 = fcmp nsz une float %62, 1.000000e+00
  br i1 %63, label %64, label %102

64:                                               ; preds = %61
  store i32 0, ptr %5, align 4, !tbaa !46
  br label %65

65:                                               ; preds = %98, %64
  %66 = load i32, ptr %5, align 4, !tbaa !46
  %67 = icmp ult i32 %66, 65536
  br i1 %67, label %68, label %101

68:                                               ; preds = %65
  %69 = load i32, ptr %5, align 4, !tbaa !46
  %70 = trunc i32 %69 to i16
  %71 = load ptr, ptr %4, align 8, !tbaa !29
  %72 = getelementptr inbounds nuw %struct.EXRContext, ptr %71, i32 0, i32 38
  %73 = call i32 @half2float(i16 noundef zeroext %70, ptr noundef %72)
  store i32 %73, ptr %6, align 4, !tbaa !47
  %74 = load float, ptr %6, align 4, !tbaa !47
  %75 = fcmp nsz ole float %74, 0.000000e+00
  br i1 %75, label %76, label %84

76:                                               ; preds = %68
  %77 = load i32, ptr %5, align 4, !tbaa !46
  %78 = trunc i32 %77 to i16
  %79 = load ptr, ptr %4, align 8, !tbaa !29
  %80 = getelementptr inbounds nuw %struct.EXRContext, ptr %79, i32 0, i32 36
  %81 = load i32, ptr %5, align 4, !tbaa !46
  %82 = zext i32 %81 to i64
  %83 = getelementptr inbounds nuw [65536 x i16], ptr %80, i64 0, i64 %82
  store i16 %78, ptr %83, align 2, !tbaa !48
  br label %97

84:                                               ; preds = %68
  %85 = load float, ptr %6, align 4, !tbaa !47
  %86 = load float, ptr %7, align 4, !tbaa !42
  %87 = call nsz float @llvm.pow.f32(float %85, float %86)
  store float %87, ptr %6, align 4, !tbaa !47
  %88 = load i32, ptr %6, align 4, !tbaa !47
  %89 = load ptr, ptr %4, align 8, !tbaa !29
  %90 = getelementptr inbounds nuw %struct.EXRContext, ptr %89, i32 0, i32 37
  %91 = call zeroext i16 @float2half(i32 noundef %88, ptr noundef %90)
  %92 = load ptr, ptr %4, align 8, !tbaa !29
  %93 = getelementptr inbounds nuw %struct.EXRContext, ptr %92, i32 0, i32 36
  %94 = load i32, ptr %5, align 4, !tbaa !46
  %95 = zext i32 %94 to i64
  %96 = getelementptr inbounds nuw [65536 x i16], ptr %93, i64 0, i64 %95
  store i16 %91, ptr %96, align 2, !tbaa !48
  br label %97

97:                                               ; preds = %84, %76
  br label %98

98:                                               ; preds = %97
  %99 = load i32, ptr %5, align 4, !tbaa !46
  %100 = add i32 %99, 1
  store i32 %100, ptr %5, align 4, !tbaa !46
  br label %65, !llvm.loop !52

101:                                              ; preds = %65
  br label %102

102:                                              ; preds = %101, %61
  br label %103

103:                                              ; preds = %102, %60
  %104 = load ptr, ptr %3, align 8, !tbaa !4
  %105 = getelementptr inbounds nuw %struct.AVCodecContext, ptr %104, i32 0, i32 116
  %106 = load i32, ptr %105, align 8, !tbaa !53
  %107 = sext i32 %106 to i64
  %108 = call noalias ptr @av_calloc(i64 noundef %107, i64 noundef 936)
  %109 = load ptr, ptr %4, align 8, !tbaa !29
  %110 = getelementptr inbounds nuw %struct.EXRContext, ptr %109, i32 0, i32 30
  store ptr %108, ptr %110, align 8, !tbaa !54
  %111 = load ptr, ptr %4, align 8, !tbaa !29
  %112 = getelementptr inbounds nuw %struct.EXRContext, ptr %111, i32 0, i32 30
  %113 = load ptr, ptr %112, align 8, !tbaa !54
  %114 = icmp ne ptr %113, null
  br i1 %114, label %116, label %115

115:                                              ; preds = %103
  store i32 -12, ptr %2, align 4
  store i32 1, ptr %9, align 4
  br label %117

116:                                              ; preds = %103
  store i32 0, ptr %2, align 4
  store i32 1, ptr %9, align 4
  br label %117

117:                                              ; preds = %116, %115
  call void @llvm.lifetime.end.p0(i64 8, ptr %8) #13
  call void @llvm.lifetime.end.p0(i64 4, ptr %7) #13
  call void @llvm.lifetime.end.p0(i64 4, ptr %6) #13
  call void @llvm.lifetime.end.p0(i64 4, ptr %5) #13
  call void @llvm.lifetime.end.p0(i64 8, ptr %4) #13
  %118 = load i32, ptr %2, align 4
  ret i32 %118
}