; Function Attrs: cold nounwind optsize uwtable
define internal range(i32 -12, 1) i32 @decode_init(ptr noundef %0) #0 {
  %2 = getelementptr inbounds nuw i8, ptr %0, i64 32
  %3 = load ptr, ptr %2, align 8, !tbaa !4
  %4 = getelementptr inbounds nuw i8, ptr %3, i64 244
  %5 = load float, ptr %4, align 4, !tbaa !27
  %6 = fdiv nsz float 1.000000e+00, %5
  %7 = getelementptr inbounds nuw i8, ptr %3, i64 131320
  tail call void @ff_init_float2half_tables(ptr noundef nonnull %7) #14
  %8 = getelementptr inbounds nuw i8, ptr %3, i64 132856
  tail call void @ff_init_half2float_tables(ptr noundef nonnull %8) #14
  %9 = getelementptr inbounds nuw i8, ptr %3, i64 16
  store ptr %0, ptr %9, align 8, !tbaa !39
  %10 = getelementptr inbounds nuw i8, ptr %3, i64 24
  tail call void @ff_exrdsp_init(ptr noundef nonnull %10) #14
  %11 = getelementptr inbounds nuw i8, ptr %3, i64 240
  %12 = load i32, ptr %11, align 8, !tbaa !40
  %13 = tail call ptr @av_csp_trc_func_from_id(i32 noundef %12) #14
  %.not = icmp eq ptr %13, null
  br i1 %.not, label %48, label %.preheader40

.preheader40:                                     ; preds = %1
  %14 = getelementptr inbounds nuw i8, ptr %3, i64 145400
  %15 = getelementptr inbounds nuw i8, ptr %3, i64 145144
  %16 = getelementptr inbounds nuw i8, ptr %3, i64 132344
  %17 = getelementptr inbounds nuw i8, ptr %3, i64 248
  br label %18

18:                                               ; preds = %.preheader40, %18
  %indvars.iv = phi i64 [ 0, %.preheader40 ], [ %indvars.iv.next, %18 ]
  %19 = lshr i64 %indvars.iv, 10
  %20 = and i64 %19, 4194303
  %21 = getelementptr inbounds nuw [64 x i16], ptr %14, i64 0, i64 %20
  %22 = load i16, ptr %21, align 2, !tbaa !41
  %23 = zext i16 %22 to i64
  %24 = and i64 %indvars.iv, 1023
  %25 = add nuw nsw i64 %24, %23
  %26 = getelementptr inbounds nuw [3072 x i32], ptr %8, i64 0, i64 %25
  %27 = load i32, ptr %26, align 4, !tbaa !43
  %28 = getelementptr inbounds nuw [64 x i32], ptr %15, i64 0, i64 %20
  %29 = load i32, ptr %28, align 4, !tbaa !43
  %30 = add i32 %29, %27
  %31 = bitcast i32 %30 to float
  %32 = fpext nsz float %31 to double
  %33 = tail call nsz double %13(double noundef %32) #14
  %34 = fptrunc nsz double %33 to float
  %35 = bitcast float %34 to i32
  %36 = lshr i32 %35, 23
  %37 = zext nneg i32 %36 to i64
  %38 = getelementptr inbounds nuw [512 x i16], ptr %7, i64 0, i64 %37
  %39 = load i16, ptr %38, align 2, !tbaa !41
  %40 = and i32 %35, 8388607
  %41 = getelementptr inbounds nuw [512 x i8], ptr %16, i64 0, i64 %37
  %42 = load i8, ptr %41, align 1, !tbaa !44
  %43 = zext nneg i8 %42 to i32
  %44 = lshr i32 %40, %43
  %45 = trunc i32 %44 to i16
  %46 = add i16 %39, %45
  %47 = getelementptr inbounds nuw [65536 x i16], ptr %17, i64 0, i64 %indvars.iv
  store i16 %46, ptr %47, align 2, !tbaa !41
  %indvars.iv.next = add nuw nsw i64 %indvars.iv, 1
  %exitcond.not = icmp eq i64 %indvars.iv.next, 65536
  br i1 %exitcond.not, label %.loopexit, label %18, !llvm.loop !45

48:                                               ; preds = %1
  %49 = fcmp nsz une float %6, 1.000000e+00
  br i1 %49, label %.preheader, label %.loopexit

.preheader:                                       ; preds = %48
  %50 = getelementptr inbounds nuw i8, ptr %3, i64 145400
  %51 = getelementptr inbounds nuw i8, ptr %3, i64 145144
  %52 = getelementptr inbounds nuw i8, ptr %3, i64 248
  %53 = getelementptr inbounds nuw i8, ptr %3, i64 132344
  br label %54

54:                                               ; preds = %.preheader, %85
  %indvars.iv46 = phi i64 [ 0, %.preheader ], [ %indvars.iv.next47, %85 ]
  %55 = lshr i64 %indvars.iv46, 10
  %56 = and i64 %55, 4194303
  %57 = getelementptr inbounds nuw [64 x i16], ptr %50, i64 0, i64 %56
  %58 = load i16, ptr %57, align 2, !tbaa !41
  %59 = zext i16 %58 to i64
  %60 = and i64 %indvars.iv46, 1023
  %61 = add nuw nsw i64 %60, %59
  %62 = getelementptr inbounds nuw [3072 x i32], ptr %8, i64 0, i64 %61
  %63 = load i32, ptr %62, align 4, !tbaa !43
  %64 = getelementptr inbounds nuw [64 x i32], ptr %51, i64 0, i64 %56
  %65 = load i32, ptr %64, align 4, !tbaa !43
  %66 = add i32 %65, %63
  %67 = bitcast i32 %66 to float
  %68 = fcmp nsz ugt float %67, 0.000000e+00
  br i1 %68, label %71, label %69

69:                                               ; preds = %54
  %70 = trunc i64 %indvars.iv46 to i16
  br label %85

71:                                               ; preds = %54
  %72 = tail call nsz float @llvm.pow.f32(float %67, float %6)
  %73 = bitcast float %72 to i32
  %74 = lshr i32 %73, 23
  %75 = zext nneg i32 %74 to i64
  %76 = getelementptr inbounds nuw [512 x i16], ptr %7, i64 0, i64 %75
  %77 = load i16, ptr %76, align 2, !tbaa !41
  %78 = and i32 %73, 8388607
  %79 = getelementptr inbounds nuw [512 x i8], ptr %53, i64 0, i64 %75
  %80 = load i8, ptr %79, align 1, !tbaa !44
  %81 = zext nneg i8 %80 to i32
  %82 = lshr i32 %78, %81
  %83 = trunc i32 %82 to i16
  %84 = add i16 %77, %83
  br label %85

85:                                               ; preds = %69, %71
  %.sink = phi i16 [ %70, %69 ], [ %84, %71 ]
  %86 = getelementptr inbounds nuw [65536 x i16], ptr %52, i64 0, i64 %indvars.iv46
  store i16 %.sink, ptr %86, align 2, !tbaa !41
  %indvars.iv.next47 = add nuw nsw i64 %indvars.iv46, 1
  %exitcond49.not = icmp eq i64 %indvars.iv.next47, 65536
  br i1 %exitcond49.not, label %.loopexit, label %54, !llvm.loop !47

.loopexit:                                        ; preds = %18, %85, %48
  %87 = getelementptr inbounds nuw i8, ptr %0, i64 656
  %88 = load i32, ptr %87, align 8, !tbaa !48
  %89 = sext i32 %88 to i64
  %90 = tail call noalias ptr @av_calloc(i64 noundef %89, i64 noundef 936) #14
  %91 = getelementptr inbounds nuw i8, ptr %3, i64 208
  store ptr %90, ptr %91, align 8, !tbaa !49
  %.not39 = icmp eq ptr %90, null
  %. = select i1 %.not39, i32 -12, i32 0
  ret i32 %.
}